target datalayout = "e-m:e-p270:32:32-p271:32:32-p272:64:64-i64:64-i128:128-f80:128-n8:16:32:64-S128"
target triple = "x86_64-pc-linux-gnu"

%struct.rio_poll_builder_st = type { ptr, [32 x %struct.pollfd], i64, i64 }
%struct.pollfd = type { i32, i16, i16 }

@.str = private unnamed_addr constant [34 x i8] c"../openssl/ssl/rio/poll_builder.c\00", align 1

; Function Attrs: nounwind uwtable
define void @ossl_rio_poll_builder_cleanup(ptr noundef %0) #0 {
  %2 = alloca ptr, align 8
  store ptr %0, ptr %2, align 8, !tbaa !3
  %3 = load ptr, ptr %2, align 8, !tbaa !3
  %4 = icmp eq ptr %3, null
  br i1 %4, label %5, label %6

5:                                                ; preds = %1
  br label %10

6:                                                ; preds = %1
  %7 = load ptr, ptr %2, align 8, !tbaa !3
  %8 = getelementptr inbounds nuw %struct.rio_poll_builder_st, ptr %7, i32 0, i32 0
  %9 = load ptr, ptr %8, align 8, !tbaa !8
  call void @CRYPTO_free(ptr noundef %9, ptr noundef @.str, i32 noundef 38)
  br label %10

10:                                               ; preds = %6, %5
  ret void
}