; Function Attrs: nounwind uwtable
define void @ossl_rio_poll_builder_cleanup(ptr noundef readonly captures(address_is_null) %0) local_unnamed_addr #1 {
  %2 = icmp eq ptr %0, null
  br i1 %2, label %5, label %3

3:                                                ; preds = %1
  %4 = load ptr, ptr %0, align 8, !tbaa !3
  tail call void @CRYPTO_free(ptr noundef %4, ptr noundef nonnull @.str, i32 noundef 38) #6
  br label %5

5:                                                ; preds = %1, %3
  ret void
}